(dp0
.'[CCB]Prime'
p1
(lp2
S'#chaoscore-security'
p3
aS'##edx-ai'
p4
aS'#chaoscore-warhammer'
p5
aS'#[BOL]'
p6
aS'#chaoscore-projects'
p7
aS'#chaoscore-schedule'
p8
aS'#chaoscore'
p9
aS'#chaoscore-learning'
p10
aS'#chaoscore-ircbot'
p11
as.'
p12
as.e-ircbot'
p10
asS'[CCB]Second'
p11
(lp12
S'#[BOL]'
p13
aS'#chaoscore'
p14
as.14
ag10
ag11
ag12
ag13
ag14
ag10
ag11
ag12
ag13
ag14
as.