(dp0
S'a'
p1
(lp2
S'#chaoscore'
p3
aS'#chaoscore-ircbot'
p4
aS'#chaoscore-learning'
p5
aS'#chaoscore-projects'
p6
aS'#chaoscore-schedule'
p7
aS'#chaoscore-warhammer'
p8
aS'##edx-ai'
p9
aS'##CS184'
p10
aS'#AI-Arimaa'
p11
aS'#'
p12
aS'E'
p13
aS'S'
p14
aS'F'
p15
asS'h'
p16
(lp17
S'#chaoscorebots'
p18
aS'#chaoscore-security'
p19
asS'O'
p20
(lp21
g12
ag13
ag14
ag15
asS'p'
p22
(lp23
g4
ag6
ag7
ag8
ag11
asS'Master'
p24
(lp25
g18
ag3
aS'#[BOL]'
p26
ag4
ag5
ag6
ag7
ag19
ag8
ag9
ag10
ag11
aS'#ESF'
p27
asS'o'
p28
(lp29
g26
as.