(dp0
S'Gio77'
p1
I-1
sS'Diodon'
p2
I-1
sS'ich'
p3
I-1
sS'sakh'
p4
S'sakh@ppp121-44-85-250.lns20.syd6.internode.on.net'
p5
sS'Garmine'
p6
S'miki@dsl51B6B4E9.pool.t-online.hu'
p7
sS'JFreegma'
p8
I-1
sS'[CCB]MasterBot'
p9
S'CCbot@unaffiliated/ichaleynbin/bot/ccbmasterbot'
p10
sS'Milchmann'
p11
I-1
sS'ichaleynbin'
p12
S'dar@unaffiliated/ichaleynbin'
p13
sS'Sakh'
p14
S'sakh@ppp121-44-85-250.lns20.syd6.internode.on.net'
p15
s.