(dp0
S'Gio77'
p1
S'50'
p2
sS'V2g6cH4'
p3
S'29'
p4
sS'sakh'
p5
S'29'
p6
sS'TexasDoug'
p7
I29
sS'JFreegman'
p8
I29
sS'smatt454'

S'98'
p10
sS'elimirks'
p11
S'90'
p12
sS'ichaleynbin'
p13
S'99'
p14
sS'arjunatberkeley'
p15
I50
s.
