(dp0
S'Gio77'
p1
I50
sS'V2g6cH4'
p2
I29
sS'V2g6cH4 int('
p3
S'9)'
p4
sS'sakh'
p5
I29
sS'elimirks int('
p6
S'0)'
p7
sS'smatt454'
p8
S'98'
p9
sS'[CCB]MasterBot'
p10
I0
sS'ichaleynbin int('
p11
S'9)'
p12
sS'elimirks'
p13
I90
sS'Gio77 int('
p14
S'0)'
p15
sS'ichaleynbin'
p16
I99
sS'sakh int('
p17
S'9)'
p18
s.