(dp0
S'a'
p1
(lp2
S'#chaoscore'
p3
aS'#chaoscore-ircbot'
p4
aS'#chaoscore-learning'
p5
aS'#chaoscore-projects'
p6
aS'#chaoscore-schedule'
p7
aS'#chaoscore-warhammer'
p8
aS'##edx-ai'
p9
asS'p'
p10
(lp11
g4
ag6
ag7
ag8
asS'Master'
p12
(lp13
S'#chaoscorebots'
p14
ag3
aS'#[BOL]'
p15
ag4
ag5
ag6
ag7
aS'#chaoscore-security'
p16
ag8
ag9
asS'o'
p17
(lp18
g15
asS'h'
p19
(lp20
g14
ag16
as.
g16
asS'h'
p20
(lp21
g15
ag17
as.